target datalayout = "e-m:e-p270:32:32-p271:32:32-p272:64:64-i64:64-i128:128-f80:128-n8:16:32:64-S128"
target triple = "x86_64-pc-linux-gnu"

%struct.Elf64_Ehdr = type { [16 x i8], i16, i16, i32, i64, i64, i64, i32, i16, i16, i16, i16, i16, i16 }

@.str.1 = private unnamed_addr constant [56 x i8] c"can't allocate memory for reading program header table\0A\00", align 1
@.str.2 = private unnamed_addr constant [56 x i8] c"ELF file is truncated! can't read program header table\0A\00", align 1

; Function Attrs: nounwind uwtable
define hidden ptr @read_program_header_table(i32 noundef %0, ptr noundef %1) #0 {
  %3 = alloca ptr, align 8
  %4 = alloca i32, align 4
  %5 = alloca ptr, align 8
  %6 = alloca ptr, align 8
  %7 = alloca i64, align 8
  store i32 %0, ptr %4, align 4
  store ptr %1, ptr %5, align 8
  store ptr null, ptr %6, align 8
  %8 = load ptr, ptr %5, align 8
  %9 = getelementptr inbounds %struct.Elf64_Ehdr, ptr %8, i32 0, i32 10
  %10 = load i16, ptr %9, align 8
  %11 = zext i16 %10 to i32
  %12 = load ptr, ptr %5, align 8
  %13 = getelementptr inbounds %struct.Elf64_Ehdr, ptr %12, i32 0, i32 9
  %14 = load i16, ptr %13, align 2
  %15 = zext i16 %14 to i32
  %16 = mul nsw i32 %11, %15
  %17 = sext i32 %16 to i64
  store i64 %17, ptr %7, align 8
  %18 = load i64, ptr %7, align 8
  %19 = call noalias ptr @malloc(i64 noundef %18) #7
  store ptr %19, ptr %6, align 8
  %20 = icmp eq ptr %19, null
  br i1 %20, label %21, label %22

21:                                               ; preds = %2
  call void (ptr, ...) @print_debug(ptr noundef @.str.1)
  store ptr null, ptr %3, align 8
  br label %36

22:                                               ; preds = %2
  %23 = load i32, ptr %4, align 4
  %24 = load ptr, ptr %6, align 8
  %25 = load i64, ptr %7, align 8
  %26 = load ptr, ptr %5, align 8
  %27 = getelementptr inbounds %struct.Elf64_Ehdr, ptr %26, i32 0, i32 5
  %28 = load i64, ptr %27, align 8
  %29 = call i64 @pread64(i32 noundef %23, ptr noundef %24, i64 noundef %25, i64 noundef %28)
  %30 = load i64, ptr %7, align 8
  %31 = icmp ne i64 %29, %30
  br i1 %31, label %32, label %34

32:                                               ; preds = %22
  call void (ptr, ...) @print_debug(ptr noundef @.str.2)
  %33 = load ptr, ptr %6, align 8
  call void @free(ptr noundef %33) #8
  store ptr null, ptr %3, align 8
  br label %36

34:                                               ; preds = %22
  %35 = load ptr, ptr %6, align 8
  store ptr %35, ptr %3, align 8
  br label %36

36:                                               ; preds = %34, %32, %21
  %37 = load ptr, ptr %3, align 8
  ret ptr %37
}