; Function Attrs: nounwind uwtable
define hidden noundef ptr @read_program_header_table(i32 noundef %0, ptr nocapture noundef readonly %1) local_unnamed_addr #0 {
  %3 = getelementptr inbounds i8, ptr %1, i64 56
  %4 = load i16, ptr %3, align 8
  %5 = zext i16 %4 to i64
  %6 = getelementptr inbounds i8, ptr %1, i64 54
  %7 = load i16, ptr %6, align 2
  %8 = zext i16 %7 to i64
  %9 = mul nuw nsw i64 %8, %5
  %10 = tail call noalias ptr @malloc(i64 noundef %9) #9
  %11 = icmp eq ptr %10, null
  br i1 %11, label %12, label %13

12:                                               ; preds = %2
  tail call void (ptr, ...) @print_debug(ptr noundef nonnull @.str.1) #8
  br label %18

13:                                               ; preds = %2
  %14 = getelementptr inbounds i8, ptr %1, i64 32
  %15 = load i64, ptr %14, align 8
  %16 = tail call i64 @pread64(i32 noundef %0, ptr noundef nonnull %10, i64 noundef %9, i64 noundef %15) #8
  %.not = icmp eq i64 %16, %9
  br i1 %.not, label %18, label %17

17:                                               ; preds = %13
  tail call void (ptr, ...) @print_debug(ptr noundef nonnull @.str.2) #8
  tail call void @free(ptr noundef nonnull %10) #8
  br label %18

18:                                               ; preds = %13, %17, %12
  %.0 = phi ptr [ null, %12 ], [ null, %17 ], [ %10, %13 ]
  ret ptr %.0
}